target datalayout = "e-m:e-p270:32:32-p271:32:32-p272:64:64-i64:64-i128:128-f80:128-n8:16:32:64-S128"
target triple = "x86_64-pc-linux-gnu"

@engine_dynamic_id = internal global ptr @.str, align 8
@engine_dynamic_name = internal global ptr @.str.1, align 8

; Function Attrs: nounwind uwtable
define internal ptr @engine_dynamic() #0 {
  %1 = alloca ptr, align 8
  %2 = alloca ptr, align 8
  %3 = alloca i32, align 4
  call void @llvm.lifetime.start.p0(i64 8, ptr %2) #6
  %4 = call ptr @ENGINE_new()
  store ptr %4, ptr %2, align 8, !tbaa !3
  %5 = load ptr, ptr %2, align 8, !tbaa !3
  %6 = icmp eq ptr %5, null
  br i1 %6, label %7, label %8

7:                                                ; preds = %0
  store ptr null, ptr %1, align 8
  store i32 1, ptr %3, align 4
  br label %43

8:                                                ; preds = %0
  %9 = load ptr, ptr %2, align 8, !tbaa !3
  %10 = load ptr, ptr @engine_dynamic_id, align 8, !tbaa !8
  %11 = call i32 @ENGINE_set_id(ptr noundef %9, ptr noundef %10)
  %12 = icmp ne i32 %11, 0
  br i1 %12, label %13, label %38

13:                                               ; preds = %8
  %14 = load ptr, ptr %2, align 8, !tbaa !3
  %15 = load ptr, ptr @engine_dynamic_name, align 8, !tbaa !8
  %16 = call i32 @ENGINE_set_name(ptr noundef %14, ptr noundef %15)
  %17 = icmp ne i32 %16, 0
  br i1 %17, label %18, label %38

18:                                               ; preds = %13
  %19 = load ptr, ptr %2, align 8, !tbaa !3
  %20 = call i32 @ENGINE_set_init_function(ptr noundef %19, ptr noundef @dynamic_init)
  %21 = icmp ne i32 %20, 0
  br i1 %21, label %22, label %38

22:                                               ; preds = %18
  %23 = load ptr, ptr %2, align 8, !tbaa !3
  %24 = call i32 @ENGINE_set_finish_function(ptr noundef %23, ptr noundef @dynamic_finish)
  %25 = icmp ne i32 %24, 0
  br i1 %25, label %26, label %38

26:                                               ; preds = %22
  %27 = load ptr, ptr %2, align 8, !tbaa !3
  %28 = call i32 @ENGINE_set_ctrl_function(ptr noundef %27, ptr noundef @dynamic_ctrl)
  %29 = icmp ne i32 %28, 0
  br i1 %29, label %30, label %38

30:                                               ; preds = %26
  %31 = load ptr, ptr %2, align 8, !tbaa !3
  %32 = call i32 @ENGINE_set_flags(ptr noundef %31, i32 noundef 4)
  %33 = icmp ne i32 %32, 0
  br i1 %33, label %34, label %38

34:                                               ; preds = %30
  %35 = load ptr, ptr %2, align 8, !tbaa !3
  %36 = call i32 @ENGINE_set_cmd_defns(ptr noundef %35, ptr noundef @dynamic_cmd_defns)
  %37 = icmp ne i32 %36, 0
  br i1 %37, label %41, label %38

38:                                               ; preds = %34, %30, %26, %22, %18, %13, %8
  %39 = load ptr, ptr %2, align 8, !tbaa !3
  %40 = call i32 @ENGINE_free(ptr noundef %39)
  store ptr null, ptr %1, align 8
  store i32 1, ptr %3, align 4
  br label %43

41:                                               ; preds = %34
  %42 = load ptr, ptr %2, align 8, !tbaa !3
  store ptr %42, ptr %1, align 8
  store i32 1, ptr %3, align 4
  br label %43

43:                                               ; preds = %41, %38, %7
  call void @llvm.lifetime.end.p0(i64 8, ptr %2) #6
  %44 = load ptr, ptr %1, align 8
  ret ptr %44
}

; Function Attrs: nounwind uwtable
define void @engine_load_dynamic_int() #0 {
  %1 = alloca ptr, align 8
  %2 = alloca i32, align 4
  call void @llvm.lifetime.start.p0(i64 8, ptr %1) #6
  %3 = call ptr @engine_dynamic()
  store ptr %3, ptr %1, align 8, !tbaa !3
  %4 = load ptr, ptr %1, align 8, !tbaa !3
  %5 = icmp ne ptr %4, null
  br i1 %5, label %7, label %6

6:                                                ; preds = %0
  store i32 1, ptr %2, align 4
  br label %14

7:                                                ; preds = %0
  %8 = call i32 @ERR_set_mark()
  %9 = load ptr, ptr %1, align 8, !tbaa !3
  %10 = call i32 @ENGINE_add(ptr noundef %9)
  %11 = load ptr, ptr %1, align 8, !tbaa !3
  %12 = call i32 @ENGINE_free(ptr noundef %11)
  %13 = call i32 @ERR_pop_to_mark()
  store i32 0, ptr %2, align 4
  br label %14

14:                                               ; preds = %7, %6
  call void @llvm.lifetime.end.p0(i64 8, ptr %1) #6
  %15 = load i32, ptr %2, align 4
  switch i32 %15, label %17 [
    i32 0, label %16
    i32 1, label %16
  ]

16:                                               ; preds = %14, %14
  ret void

17:                                               ; preds = %14
  unreachable
}