; Function Attrs: nounwind uwtable
define void @engine_load_dynamic_int() local_unnamed_addr #0 {
  %1 = tail call ptr @ENGINE_new() #6
  %2 = icmp eq ptr %1, null
  br i1 %2, label %engine_dynamic.exit.thread, label %3

3:                                                ; preds = %0
  %4 = tail call i32 @ENGINE_set_id(ptr noundef nonnull %1, ptr noundef nonnull @.str) #6
  %.not.i = icmp eq i32 %4, 0
  br i1 %.not.i, label %17, label %5

5:                                                ; preds = %3
  %6 = tail call i32 @ENGINE_set_name(ptr noundef nonnull %1, ptr noundef nonnull @.str.1) #6
  %.not12.i = icmp eq i32 %6, 0
  br i1 %.not12.i, label %17, label %7

7:                                                ; preds = %5
  %8 = tail call i32 @ENGINE_set_init_function(ptr noundef nonnull %1, ptr noundef nonnull @dynamic_init) #6
  %.not13.i = icmp eq i32 %8, 0
  br i1 %.not13.i, label %17, label %9

9:                                                ; preds = %7
  %10 = tail call i32 @ENGINE_set_finish_function(ptr noundef nonnull %1, ptr noundef nonnull @dynamic_finish) #6
  %.not14.i = icmp eq i32 %10, 0
  br i1 %.not14.i, label %17, label %11

11:                                               ; preds = %9
  %12 = tail call i32 @ENGINE_set_ctrl_function(ptr noundef nonnull %1, ptr noundef nonnull @dynamic_ctrl) #6
  %.not15.i = icmp eq i32 %12, 0
  br i1 %.not15.i, label %17, label %13

13:                                               ; preds = %11
  %14 = tail call i32 @ENGINE_set_flags(ptr noundef nonnull %1, i32 noundef 4) #6
  %.not16.i = icmp eq i32 %14, 0
  br i1 %.not16.i, label %17, label %15

15:                                               ; preds = %13
  %16 = tail call i32 @ENGINE_set_cmd_defns(ptr noundef nonnull %1, ptr noundef nonnull @dynamic_cmd_defns) #6
  %.not17.i = icmp eq i32 %16, 0
  br i1 %.not17.i, label %17, label %engine_dynamic.exit

17:                                               ; preds = %15, %13, %11, %9, %7, %5, %3
  %18 = tail call i32 @ENGINE_free(ptr noundef nonnull %1) #6
  br label %engine_dynamic.exit.thread

engine_dynamic.exit:                              ; preds = %15
  %19 = tail call i32 @ERR_set_mark() #6
  %20 = tail call i32 @ENGINE_add(ptr noundef nonnull %1) #6
  %21 = tail call i32 @ENGINE_free(ptr noundef nonnull %1) #6
  %22 = tail call i32 @ERR_pop_to_mark() #6
  br label %engine_dynamic.exit.thread

engine_dynamic.exit.thread:                       ; preds = %0, %17, %engine_dynamic.exit
  ret void
}